target datalayout = "e-m:e-p270:32:32-p271:32:32-p272:64:64-i64:64-i128:128-f80:128-n8:16:32:64-S128"
target triple = "x86_64-pc-linux-gnu"

%struct.GDBSystemState = type { %struct.CharBackend, ptr }
%struct.CharBackend = type { ptr, ptr, ptr, ptr, ptr, ptr, i32, i8 }
%struct.GDBState = type { i8, ptr, ptr, ptr, i32, [4096 x i8], i32, i32, i32, ptr, i32, i8, ptr, i32, ptr, ptr, i32, i32, i8 }
%struct._GArray = type { ptr, i32 }
%union.GdbCmdVariant = type { ptr, [8 x i8] }
%struct._GByteArray = type { ptr, i32 }

@gdbserver_system_state = dso_local global %struct.GDBSystemState zeroinitializer, align 8
@gdbserver_state = external global %struct.GDBState, align 8
@.str = private unnamed_addr constant [25 x i8] c"../qemu/gdbstub/system.c\00", align 1
@.str.13 = private unnamed_addr constant [4 x i8] c"E22\00", align 1
@.str.14 = private unnamed_addr constant [3 x i8] c"OK\00", align 1
@.str.15 = private unnamed_addr constant [4 x i8] c"E01\00", align 1
@__func__.gdb_handle_query_rcmd = private unnamed_addr constant [22 x i8] c"gdb_handle_query_rcmd\00", align 1
@.str.16 = private unnamed_addr constant [34 x i8] c"gdbserver_state.mem_buf->len == 0\00", align 1

; Function Attrs: nounwind sspstrong uwtable
define dso_local void @gdb_handle_query_rcmd(ptr noundef %0, ptr noundef %1) #0 {
  %3 = alloca ptr, align 8
  %4 = alloca ptr, align 8
  %5 = alloca i8, align 1
  %6 = alloca i32, align 4
  %7 = alloca i32, align 4
  %8 = alloca i32, align 4
  %9 = alloca i32, align 4
  store ptr %0, ptr %3, align 8
  store ptr %1, ptr %4, align 8
  call void @llvm.lifetime.start.p0(i64 1, ptr %5) #14
  store i8 0, ptr %5, align 1
  call void @llvm.lifetime.start.p0(i64 4, ptr %6) #14
  store i32 0, ptr %6, align 4, !annotation !4
  %10 = load ptr, ptr %3, align 8
  %11 = getelementptr inbounds nuw %struct._GArray, ptr %10, i32 0, i32 1
  %12 = load i32, ptr %11, align 8
  %13 = icmp ne i32 %12, 0
  br i1 %13, label %16, label %14

14:                                               ; preds = %2
  %15 = call i32 @gdb_put_packet(ptr noundef @.str.13)
  store i32 1, ptr %7, align 4
  br label %67

16:                                               ; preds = %2
  %17 = load ptr, ptr %3, align 8
  %18 = getelementptr inbounds nuw %struct._GArray, ptr %17, i32 0, i32 0
  %19 = load ptr, ptr %18, align 8
  %20 = getelementptr inbounds %union.GdbCmdVariant, ptr %19, i64 0
  %21 = load ptr, ptr %20, align 8
  %22 = call i64 @strlen(ptr noundef %21) #16
  %23 = trunc i64 %22 to i32
  store i32 %23, ptr %6, align 4
  %24 = load i32, ptr %6, align 4
  %25 = srem i32 %24, 2
  %26 = icmp ne i32 %25, 0
  br i1 %26, label %27, label %29

27:                                               ; preds = %16
  %28 = call i32 @gdb_put_packet(ptr noundef @.str.15)
  store i32 1, ptr %7, align 4
  br label %67

29:                                               ; preds = %16
  br label %30

30:                                               ; preds = %29
  call void @llvm.lifetime.start.p0(i64 4, ptr %8) #14
  store i32 0, ptr %8, align 4, !annotation !4
  %31 = load ptr, ptr getelementptr inbounds nuw (%struct.GDBState, ptr @gdbserver_state, i32 0, i32 15), align 8
  %32 = getelementptr inbounds nuw %struct._GByteArray, ptr %31, i32 0, i32 1
  %33 = load i32, ptr %32, align 8
  %34 = icmp eq i32 %33, 0
  br i1 %34, label %35, label %36

35:                                               ; preds = %30
  store i32 1, ptr %8, align 4
  br label %37

36:                                               ; preds = %30
  store i32 0, ptr %8, align 4
  br label %37

37:                                               ; preds = %36, %35
  %38 = load i32, ptr %8, align 4
  store i32 %38, ptr %9, align 4
  call void @llvm.lifetime.end.p0(i64 4, ptr %8) #14
  %39 = load i32, ptr %9, align 4
  %40 = sext i32 %39 to i64
  %41 = call i64 @llvm.expect.i64(i64 %40, i64 1)
  %42 = icmp ne i64 %41, 0
  br i1 %42, label %43, label %44

43:                                               ; preds = %37
  br label %45

44:                                               ; preds = %37
  call void @g_assertion_message_expr(ptr noundef null, ptr noundef @.str, i32 noundef 531, ptr noundef @__func__.gdb_handle_query_rcmd, ptr noundef @.str.16) #15
  unreachable

45:                                               ; preds = %43
  br label %46

46:                                               ; preds = %45
  br label %47

47:                                               ; preds = %46
  %48 = load i32, ptr %6, align 4
  %49 = sdiv i32 %48, 2
  store i32 %49, ptr %6, align 4
  %50 = load ptr, ptr getelementptr inbounds nuw (%struct.GDBState, ptr @gdbserver_state, i32 0, i32 15), align 8
  %51 = load ptr, ptr %3, align 8
  %52 = getelementptr inbounds nuw %struct._GArray, ptr %51, i32 0, i32 0
  %53 = load ptr, ptr %52, align 8
  %54 = getelementptr inbounds %union.GdbCmdVariant, ptr %53, i64 0
  %55 = load ptr, ptr %54, align 8
  %56 = load i32, ptr %6, align 4
  call void @gdb_hextomem(ptr noundef %50, ptr noundef %55, i32 noundef %56)
  %57 = load ptr, ptr getelementptr inbounds nuw (%struct.GDBState, ptr @gdbserver_state, i32 0, i32 15), align 8
  %58 = call ptr @g_byte_array_append(ptr noundef %57, ptr noundef %5, i32 noundef 1)
  %59 = load ptr, ptr getelementptr inbounds nuw (%struct.GDBSystemState, ptr @gdbserver_system_state, i32 0, i32 1), align 8
  %60 = load ptr, ptr getelementptr inbounds nuw (%struct.GDBState, ptr @gdbserver_state, i32 0, i32 15), align 8
  %61 = getelementptr inbounds nuw %struct._GByteArray, ptr %60, i32 0, i32 0
  %62 = load ptr, ptr %61, align 8
  %63 = load ptr, ptr getelementptr inbounds nuw (%struct.GDBState, ptr @gdbserver_state, i32 0, i32 15), align 8
  %64 = getelementptr inbounds nuw %struct._GByteArray, ptr %63, i32 0, i32 1
  %65 = load i32, ptr %64, align 8
  call void @qemu_chr_be_write(ptr noundef %59, ptr noundef %62, i32 noundef %65)
  %66 = call i32 @gdb_put_packet(ptr noundef @.str.14)
  store i32 0, ptr %7, align 4
  br label %67

67:                                               ; preds = %47, %27, %14
  call void @llvm.lifetime.end.p0(i64 4, ptr %6) #14
  call void @llvm.lifetime.end.p0(i64 1, ptr %5) #14
  %68 = load i32, ptr %7, align 4
  switch i32 %68, label %70 [
    i32 0, label %69
    i32 1, label %69
  ]

69:                                               ; preds = %67, %67
  ret void

70:                                               ; preds = %67
  unreachable
}