; Function Attrs: nounwind sspstrong uwtable
define dso_local void @gdb_handle_query_rcmd(ptr noundef readonly captures(none) %0, ptr noundef readnone captures(none) %1) local_unnamed_addr #2 {
  %3 = alloca i8, align 1
  call void @llvm.lifetime.start.p0(i64 1, ptr nonnull %3) #16
  store i8 0, ptr %3, align 1
  %4 = getelementptr inbounds nuw i8, ptr %0, i64 8
  %5 = load i32, ptr %4, align 8
  %.not = icmp eq i32 %5, 0
  br i1 %.not, label %6, label %8

6:                                                ; preds = %2
  %7 = tail call i32 @gdb_put_packet(ptr noundef nonnull @.str.13) #16
  br label %31

8:                                                ; preds = %2
  %9 = load ptr, ptr %0, align 8
  %10 = load ptr, ptr %9, align 8
  %11 = tail call i64 @strlen(ptr noundef nonnull dereferenceable(1) %10) #17
  %12 = trunc i64 %11 to i32
  %13 = and i32 %12, 1
  %.not7 = icmp eq i32 %13, 0
  br i1 %.not7, label %16, label %14

14:                                               ; preds = %8
  %15 = tail call i32 @gdb_put_packet(ptr noundef nonnull @.str.15) #16
  br label %31

16:                                               ; preds = %8
  %17 = load ptr, ptr getelementptr inbounds nuw (i8, ptr @gdbserver_state, i64 4184), align 8
  %18 = getelementptr inbounds nuw i8, ptr %17, i64 8
  %19 = load i32, ptr %18, align 8
  %.not9 = icmp eq i32 %19, 0
  br i1 %.not9, label %21, label %20, !prof !5

20:                                               ; preds = %16
  tail call void @g_assertion_message_expr(ptr noundef null, ptr noundef nonnull @.str, i32 noundef 531, ptr noundef nonnull @__func__.gdb_handle_query_rcmd, ptr noundef nonnull @.str.16) #18
  unreachable

21:                                               ; preds = %16
  %22 = ashr exact i32 %12, 1
  tail call void @gdb_hextomem(ptr noundef nonnull %17, ptr noundef nonnull %10, i32 noundef %22) #16
  %23 = load ptr, ptr getelementptr inbounds nuw (i8, ptr @gdbserver_state, i64 4184), align 8
  %24 = call ptr @g_byte_array_append(ptr noundef %23, ptr noundef nonnull %3, i32 noundef 1) #16
  %25 = load ptr, ptr getelementptr inbounds nuw (i8, ptr @gdbserver_system_state, i64 56), align 8
  %26 = load ptr, ptr getelementptr inbounds nuw (i8, ptr @gdbserver_state, i64 4184), align 8
  %27 = load ptr, ptr %26, align 8
  %28 = getelementptr inbounds nuw i8, ptr %26, i64 8
  %29 = load i32, ptr %28, align 8
  call void @qemu_chr_be_write(ptr noundef %25, ptr noundef %27, i32 noundef %29) #16
  %30 = call i32 @gdb_put_packet(ptr noundef nonnull @.str.14) #16
  br label %31

31:                                               ; preds = %21, %14, %6
  call void @llvm.lifetime.end.p0(i64 1, ptr nonnull %3) #16
  ret void
}